target datalayout = "e-m:e-p270:32:32-p271:32:32-p272:64:64-i64:64-i128:128-f80:128-n8:16:32:64-S128"
target triple = "x86_64-pc-linux-gnu"

%struct.OSQPSettings = type { i64, i32, i64, i64, i64, i64, i64, i64, double, i64, double, double, i64, i64, double, i32, i64, i64, double, double, i64, double, double, double, double, i64, i64, double, double, i64 }

; Function Attrs: nounwind uwtable
define void @osqp_set_default_settings(ptr noundef %0) #0 {
  %2 = alloca ptr, align 8
  store ptr %0, ptr %2, align 8
  %3 = load ptr, ptr %2, align 8
  %4 = icmp ne ptr %3, null
  br i1 %4, label %6, label %5

5:                                                ; preds = %1
  br label %68

6:                                                ; preds = %1
  %7 = load ptr, ptr %2, align 8
  %8 = getelementptr inbounds %struct.OSQPSettings, ptr %7, i32 0, i32 0
  store i64 0, ptr %8, align 8
  %9 = call i32 @osqp_algebra_default_linsys()
  %10 = load ptr, ptr %2, align 8
  %11 = getelementptr inbounds %struct.OSQPSettings, ptr %10, i32 0, i32 1
  store i32 %9, ptr %11, align 8
  %12 = load ptr, ptr %2, align 8
  %13 = getelementptr inbounds %struct.OSQPSettings, ptr %12, i32 0, i32 2
  store i64 1, ptr %13, align 8
  %14 = load ptr, ptr %2, align 8
  %15 = getelementptr inbounds %struct.OSQPSettings, ptr %14, i32 0, i32 4
  store i64 0, ptr %15, align 8
  %16 = load ptr, ptr %2, align 8
  %17 = getelementptr inbounds %struct.OSQPSettings, ptr %16, i32 0, i32 3
  store i64 1, ptr %17, align 8
  %18 = load ptr, ptr %2, align 8
  %19 = getelementptr inbounds %struct.OSQPSettings, ptr %18, i32 0, i32 5
  store i64 1, ptr %19, align 8
  %20 = load ptr, ptr %2, align 8
  %21 = getelementptr inbounds %struct.OSQPSettings, ptr %20, i32 0, i32 6
  store i64 10, ptr %21, align 8
  %22 = load ptr, ptr %2, align 8
  %23 = getelementptr inbounds %struct.OSQPSettings, ptr %22, i32 0, i32 7
  store i64 0, ptr %23, align 8
  %24 = load ptr, ptr %2, align 8
  %25 = getelementptr inbounds %struct.OSQPSettings, ptr %24, i32 0, i32 8
  store double 1.000000e-01, ptr %25, align 8
  %26 = load ptr, ptr %2, align 8
  %27 = getelementptr inbounds %struct.OSQPSettings, ptr %26, i32 0, i32 9
  store i64 1, ptr %27, align 8
  %28 = load ptr, ptr %2, align 8
  %29 = getelementptr inbounds %struct.OSQPSettings, ptr %28, i32 0, i32 10
  store double 0x3EB0C6F7A0B5ED8D, ptr %29, align 8
  %30 = load ptr, ptr %2, align 8
  %31 = getelementptr inbounds %struct.OSQPSettings, ptr %30, i32 0, i32 11
  store double 1.600000e+00, ptr %31, align 8
  %32 = load ptr, ptr %2, align 8
  %33 = getelementptr inbounds %struct.OSQPSettings, ptr %32, i32 0, i32 12
  store i64 20, ptr %33, align 8
  %34 = load ptr, ptr %2, align 8
  %35 = getelementptr inbounds %struct.OSQPSettings, ptr %34, i32 0, i32 13
  store i64 10, ptr %35, align 8
  %36 = load ptr, ptr %2, align 8
  %37 = getelementptr inbounds %struct.OSQPSettings, ptr %36, i32 0, i32 14
  store double 1.500000e-01, ptr %37, align 8
  %38 = load ptr, ptr %2, align 8
  %39 = getelementptr inbounds %struct.OSQPSettings, ptr %38, i32 0, i32 15
  store i32 1, ptr %39, align 8
  %40 = load ptr, ptr %2, align 8
  %41 = getelementptr inbounds %struct.OSQPSettings, ptr %40, i32 0, i32 16
  store i64 1, ptr %41, align 8
  %42 = load ptr, ptr %2, align 8
  %43 = getelementptr inbounds %struct.OSQPSettings, ptr %42, i32 0, i32 17
  store i64 0, ptr %43, align 8
  %44 = load ptr, ptr %2, align 8
  %45 = getelementptr inbounds %struct.OSQPSettings, ptr %44, i32 0, i32 18
  store double 4.000000e-01, ptr %45, align 8
  %46 = load ptr, ptr %2, align 8
  %47 = getelementptr inbounds %struct.OSQPSettings, ptr %46, i32 0, i32 19
  store double 5.000000e+00, ptr %47, align 8
  %48 = load ptr, ptr %2, align 8
  %49 = getelementptr inbounds %struct.OSQPSettings, ptr %48, i32 0, i32 20
  store i64 4000, ptr %49, align 8
  %50 = load ptr, ptr %2, align 8
  %51 = getelementptr inbounds %struct.OSQPSettings, ptr %50, i32 0, i32 21
  store double 1.000000e-03, ptr %51, align 8
  %52 = load ptr, ptr %2, align 8
  %53 = getelementptr inbounds %struct.OSQPSettings, ptr %52, i32 0, i32 22
  store double 1.000000e-03, ptr %53, align 8
  %54 = load ptr, ptr %2, align 8
  %55 = getelementptr inbounds %struct.OSQPSettings, ptr %54, i32 0, i32 23
  store double 1.000000e-04, ptr %55, align 8
  %56 = load ptr, ptr %2, align 8
  %57 = getelementptr inbounds %struct.OSQPSettings, ptr %56, i32 0, i32 24
  store double 1.000000e-04, ptr %57, align 8
  %58 = load ptr, ptr %2, align 8
  %59 = getelementptr inbounds %struct.OSQPSettings, ptr %58, i32 0, i32 25
  store i64 0, ptr %59, align 8
  %60 = load ptr, ptr %2, align 8
  %61 = getelementptr inbounds %struct.OSQPSettings, ptr %60, i32 0, i32 26
  store i64 25, ptr %61, align 8
  %62 = load ptr, ptr %2, align 8
  %63 = getelementptr inbounds %struct.OSQPSettings, ptr %62, i32 0, i32 27
  store double 1.000000e+10, ptr %63, align 8
  %64 = load ptr, ptr %2, align 8
  %65 = getelementptr inbounds %struct.OSQPSettings, ptr %64, i32 0, i32 28
  store double 0x3EB0C6F7A0B5ED8D, ptr %65, align 8
  %66 = load ptr, ptr %2, align 8
  %67 = getelementptr inbounds %struct.OSQPSettings, ptr %66, i32 0, i32 29
  store i64 3, ptr %67, align 8
  br label %68

68:                                               ; preds = %6, %5
  ret void
}