; Function Attrs: nounwind uwtable
define void @osqp_set_default_settings(ptr noundef writeonly %0) local_unnamed_addr #0 {
  %.not = icmp eq ptr %0, null
  br i1 %.not, label %28, label %2

2:                                                ; preds = %1
  store i64 0, ptr %0, align 8
  %3 = tail call i32 @osqp_algebra_default_linsys() #15
  %4 = getelementptr inbounds i8, ptr %0, i64 8
  store i32 %3, ptr %4, align 8
  %5 = getelementptr inbounds i8, ptr %0, i64 16
  store i64 1, ptr %5, align 8
  %6 = getelementptr inbounds i8, ptr %0, i64 32
  store i64 0, ptr %6, align 8
  %7 = getelementptr inbounds i8, ptr %0, i64 24
  store i64 1, ptr %7, align 8
  %8 = getelementptr inbounds i8, ptr %0, i64 40
  store i64 1, ptr %8, align 8
  %9 = getelementptr inbounds i8, ptr %0, i64 48
  store i64 10, ptr %9, align 8
  %10 = getelementptr inbounds i8, ptr %0, i64 56
  store i64 0, ptr %10, align 8
  %11 = getelementptr inbounds i8, ptr %0, i64 64
  store double 1.000000e-01, ptr %11, align 8
  %12 = getelementptr inbounds i8, ptr %0, i64 72
  store i64 1, ptr %12, align 8
  %13 = getelementptr inbounds i8, ptr %0, i64 80
  store <2 x double> <double 0x3EB0C6F7A0B5ED8D, double 1.600000e+00>, ptr %13, align 8
  %14 = getelementptr inbounds i8, ptr %0, i64 96
  store i64 20, ptr %14, align 8
  %15 = getelementptr inbounds i8, ptr %0, i64 104
  store i64 10, ptr %15, align 8
  %16 = getelementptr inbounds i8, ptr %0, i64 112
  store double 1.500000e-01, ptr %16, align 8
  %17 = getelementptr inbounds i8, ptr %0, i64 120
  store i32 1, ptr %17, align 8
  %18 = getelementptr inbounds i8, ptr %0, i64 128
  store i64 1, ptr %18, align 8
  %19 = getelementptr inbounds i8, ptr %0, i64 136
  store i64 0, ptr %19, align 8
  %20 = getelementptr inbounds i8, ptr %0, i64 144
  store <2 x double> <double 4.000000e-01, double 5.000000e+00>, ptr %20, align 8
  %21 = getelementptr inbounds i8, ptr %0, i64 160
  store i64 4000, ptr %21, align 8
  %22 = getelementptr inbounds i8, ptr %0, i64 168
  store <2 x double> <double 1.000000e-03, double 1.000000e-03>, ptr %22, align 8
  %23 = getelementptr inbounds i8, ptr %0, i64 184
  store <2 x double> <double 1.000000e-04, double 1.000000e-04>, ptr %23, align 8
  %24 = getelementptr inbounds i8, ptr %0, i64 200
  store i64 0, ptr %24, align 8
  %25 = getelementptr inbounds i8, ptr %0, i64 208
  store i64 25, ptr %25, align 8
  %26 = getelementptr inbounds i8, ptr %0, i64 216
  store <2 x double> <double 1.000000e+10, double 0x3EB0C6F7A0B5ED8D>, ptr %26, align 8
  %27 = getelementptr inbounds i8, ptr %0, i64 232
  store i64 3, ptr %27, align 8
  br label %28

28:                                               ; preds = %1, %2
  ret void
}